; Function Attrs: mustprogress uwtable
define internal fastcc void @"_ZNO8pybind116detail15argument_loaderIJEE4callINS_7capsuleENS0_9void_typeERZ22test_submodule_pytypesRNS_7module_EE4$_62EENSt9enable_ifIXntsr3std7is_voidIT_EE5valueESB_E4typeEOT1_"(ptr dead_on_unwind noalias writable align 8 %0) unnamed_addr #1 align 2 personality ptr @__gxx_personality_v0 {
  tail call void @llvm.experimental.noalias.scope.decl(metadata !3252)
  tail call void @llvm.experimental.noalias.scope.decl(metadata !3255)
  tail call void @_ZN8pybind115printILNS_19return_value_policyE1EJRA17_KcEEEvDpOT0_(ptr noundef nonnull align 1 dereferenceable(17) @.str.304), !noalias !3258
  tail call void @_ZN8pybind117capsuleC2EPKvPFvPvE(ptr noundef nonnull align 8 dereferenceable(8) %0, ptr noundef nonnull inttoptr (i64 1234 to ptr), ptr noundef nonnull @"_ZZZ22test_submodule_pytypesRN8pybind117module_EENK4$_62clEvENUlPvE_8__invokeES3_")
  invoke void @_ZN8pybind115printILNS_19return_value_policyE1EJRA17_KcEEEvDpOT0_(ptr noundef nonnull align 1 dereferenceable(17) @.str.307)
          to label %2 unwind label %10

2:                                                ; preds = %1
  %3 = load ptr, ptr %0, align 8, !alias.scope !3258
  %4 = invoke i32 @PyCapsule_SetName(ptr noundef %3, ptr noundef nonnull @.str.311)
          to label %.noexc.i.i unwind label %10

.noexc.i.i:                                       ; preds = %2
  %.not.i.i.i = icmp eq i32 %4, 0
  br i1 %.not.i.i.i, label %"_ZNO8pybind116detail15argument_loaderIJEE9call_implINS_7capsuleERZ22test_submodule_pytypesRNS_7module_EE4$_62TpTnmJENS0_9void_typeEEET_OT0_St16integer_sequenceImJXspT1_EEEOT2_.exit", label %5

5:                                                ; preds = %.noexc.i.i
  %6 = tail call ptr @__cxa_allocate_exception(i64 24) #25
  invoke void @_ZN8pybind1117error_already_setC2Ev(ptr noundef nonnull align 8 dereferenceable(24) %6)
          to label %7 unwind label %8

7:                                                ; preds = %5
  invoke void @__cxa_throw(ptr nonnull %6, ptr nonnull @_ZTIN8pybind1117error_already_setE, ptr nonnull @_ZN8pybind1117error_already_setD2Ev) #30
          to label %.noexc2.i.i unwind label %10

.noexc2.i.i:                                      ; preds = %7
  unreachable

8:                                                ; preds = %5
  %9 = landingpad { ptr, i32 }
          cleanup
  tail call void @__cxa_free_exception(ptr %6) #25
  br label %.body.i.i

10:                                               ; preds = %7, %2, %1
  %11 = landingpad { ptr, i32 }
          cleanup
  br label %.body.i.i

.body.i.i:                                        ; preds = %10, %8
  %eh.lpad-body.i.i = phi { ptr, i32 } [ %11, %10 ], [ %9, %8 ]
  tail call void @_ZN8pybind117capsuleD2Ev(ptr noundef nonnull align 8 dereferenceable(8) %0) #25
  resume { ptr, i32 } %eh.lpad-body.i.i

"_ZNO8pybind116detail15argument_loaderIJEE9call_implINS_7capsuleERZ22test_submodule_pytypesRNS_7module_EE4$_62TpTnmJENS0_9void_typeEEET_OT0_St16integer_sequenceImJXspT1_EEEOT2_.exit": ; preds = %.noexc.i.i
  ret void
}